; Function Attrs: nounwind uwtable
define internal range(i32 -2, 2) i32 @ecxkem_decapsulate_init(ptr noundef captures(address_is_null) %0, ptr noundef %1, ptr noundef %2) #0 {
  %4 = tail call i32 @ossl_prov_is_running() #5
  %.not.i = icmp eq i32 %4, 0
  br i1 %.not.i, label %ecxkem_init.exit, label %5

5:                                                ; preds = %3
  %6 = getelementptr i8, ptr %1, i64 80
  %.val.i = load ptr, ptr %6, align 8, !tbaa !36
  %7 = icmp eq ptr %.val.i, null
  br i1 %7, label %ecxkem_init.exit, label %8

8:                                                ; preds = %5
  %9 = load ptr, ptr %0, align 8, !tbaa !25
  tail call void @ossl_ecx_key_free(ptr noundef %9) #5
  store ptr null, ptr %0, align 8, !tbaa !25
  %10 = getelementptr i8, ptr %1, i64 96
  %.val.i.i = load i32, ptr %10, align 8, !tbaa !3
  %11 = icmp eq i32 %.val.i.i, 0
  %.str.5..str.6.i.i.i = select i1 %11, ptr @.str.5, ptr @.str.6
  %12 = tail call ptr @ossl_HPKE_KEM_INFO_find_curve(ptr noundef nonnull %.str.5..str.6.i.i.i) #5
  %13 = getelementptr inbounds nuw i8, ptr %0, i64 64
  store ptr %12, ptr %13, align 8, !tbaa !26
  %14 = icmp eq ptr %12, null
  br i1 %14, label %ecxkem_init.exit, label %15

15:                                               ; preds = %8
  %16 = getelementptr inbounds nuw i8, ptr %0, i64 56
  store ptr @.str.2, ptr %16, align 8, !tbaa !27
  %17 = tail call i32 @ossl_ecx_key_up_ref(ptr noundef nonnull %1) #5
  %.not11.i.i = icmp eq i32 %17, 0
  br i1 %.not11.i.i, label %ecxkem_init.exit, label %18

18:                                               ; preds = %15
  store ptr %1, ptr %0, align 8, !tbaa !25
  %19 = getelementptr inbounds nuw i8, ptr %0, i64 36
  store i32 8192, ptr %19, align 4, !tbaa !28
  %20 = tail call i32 @ecxkem_set_ctx_params(ptr noundef nonnull %0, ptr noundef %2)
  br label %ecxkem_init.exit

ecxkem_init.exit:                                 ; preds = %3, %5, %8, %15, %18
  %.0.i = phi i32 [ %20, %18 ], [ 0, %3 ], [ 0, %5 ], [ 0, %15 ], [ -2, %8 ]
  ret i32 %.0.i
}